target datalayout = "e-m:e-p270:32:32-p271:32:32-p272:64:64-i64:64-i128:128-f80:128-n8:16:32:64-S128"
target triple = "x86_64-pc-linux-gnu"

%struct.GCRef = type { i64 }
%struct.MRef = type { i64 }
%struct.lua_State = type { %struct.GCRef, i8, i8, i8, i8, %struct.MRef, %struct.GCRef, ptr, ptr, %struct.MRef, %struct.MRef, %struct.GCRef, %struct.GCRef, ptr, i32 }
%union.TValue = type { i64 }
%struct.GCfuncC = type { %struct.GCRef, i8, i8, i8, i8, %struct.GCRef, %struct.GCRef, %struct.MRef, ptr, [1 x %union.TValue] }

@.str = private unnamed_addr constant [17 x i8] c"0123456789abcdef\00", align 1
@.str.2 = private unnamed_addr constant [4 x i8] c"nil\00", align 1
@.str.3 = private unnamed_addr constant [6 x i8] c"false\00", align 1
@.str.4 = private unnamed_addr constant [5 x i8] c"true\00", align 1
@lj_obj_itypename = external hidden constant [14 x ptr], align 16
@.str.5 = private unnamed_addr constant [9 x i8] c"builtin#\00", align 1

; Function Attrs: nounwind uwtable
define hidden ptr @lj_strfmt_wptr(ptr noundef %0, ptr noundef %1) #0 {
  %3 = alloca ptr, align 8
  %4 = alloca ptr, align 8
  %5 = alloca ptr, align 8
  %6 = alloca i64, align 8
  %7 = alloca i32, align 4
  %8 = alloca i32, align 4
  %9 = alloca i32, align 4
  store ptr %0, ptr %4, align 8, !tbaa !13
  store ptr %1, ptr %5, align 8, !tbaa !22
  call void @llvm.lifetime.start.p0(i64 8, ptr %6) #10
  %10 = load ptr, ptr %5, align 8, !tbaa !22
  %11 = ptrtoint ptr %10 to i64
  store i64 %11, ptr %6, align 8, !tbaa !23
  call void @llvm.lifetime.start.p0(i64 4, ptr %7) #10
  call void @llvm.lifetime.start.p0(i64 4, ptr %8) #10
  store i32 18, ptr %8, align 4, !tbaa !17
  %12 = load i64, ptr %6, align 8, !tbaa !23
  %13 = icmp eq i64 %12, 0
  br i1 %13, label %14, label %24

14:                                               ; preds = %2
  %15 = load ptr, ptr %4, align 8, !tbaa !13
  %16 = getelementptr inbounds nuw i8, ptr %15, i32 1
  store ptr %16, ptr %4, align 8, !tbaa !13
  store i8 78, ptr %15, align 1, !tbaa !16
  %17 = load ptr, ptr %4, align 8, !tbaa !13
  %18 = getelementptr inbounds nuw i8, ptr %17, i32 1
  store ptr %18, ptr %4, align 8, !tbaa !13
  store i8 85, ptr %17, align 1, !tbaa !16
  %19 = load ptr, ptr %4, align 8, !tbaa !13
  %20 = getelementptr inbounds nuw i8, ptr %19, i32 1
  store ptr %20, ptr %4, align 8, !tbaa !13
  store i8 76, ptr %19, align 1, !tbaa !16
  %21 = load ptr, ptr %4, align 8, !tbaa !13
  %22 = getelementptr inbounds nuw i8, ptr %21, i32 1
  store ptr %22, ptr %4, align 8, !tbaa !13
  store i8 76, ptr %21, align 1, !tbaa !16
  %23 = load ptr, ptr %4, align 8, !tbaa !13
  store ptr %23, ptr %3, align 8
  store i32 1, ptr %9, align 4
  br label %69

24:                                               ; preds = %2
  %25 = load i64, ptr %6, align 8, !tbaa !23
  %26 = ashr i64 %25, 32
  %27 = icmp ne i64 %26, 0
  br i1 %27, label %28, label %37

28:                                               ; preds = %24
  %29 = load i64, ptr %6, align 8, !tbaa !23
  %30 = ashr i64 %29, 32
  %31 = trunc i64 %30 to i32
  %32 = call i32 @llvm.ctlz.i32(i32 %31, i1 true)
  %33 = xor i32 %32, 31
  %34 = lshr i32 %33, 3
  %35 = mul i32 2, %34
  %36 = add i32 2, %35
  br label %38

37:                                               ; preds = %24
  br label %38

38:                                               ; preds = %37, %28
  %39 = phi i32 [ %36, %28 ], [ 0, %37 ]
  %40 = add i32 10, %39
  store i32 %40, ptr %8, align 4, !tbaa !17
  %41 = load ptr, ptr %4, align 8, !tbaa !13
  %42 = getelementptr inbounds i8, ptr %41, i64 0
  store i8 48, ptr %42, align 1, !tbaa !16
  %43 = load ptr, ptr %4, align 8, !tbaa !13
  %44 = getelementptr inbounds i8, ptr %43, i64 1
  store i8 120, ptr %44, align 1, !tbaa !16
  %45 = load i32, ptr %8, align 4, !tbaa !17
  %46 = sub i32 %45, 1
  store i32 %46, ptr %7, align 4, !tbaa !17
  br label %47

47:                                               ; preds = %59, %38
  %48 = load i32, ptr %7, align 4, !tbaa !17
  %49 = icmp uge i32 %48, 2
  br i1 %49, label %50, label %64

50:                                               ; preds = %47
  %51 = load i64, ptr %6, align 8, !tbaa !23
  %52 = and i64 %51, 15
  %53 = getelementptr inbounds [17 x i8], ptr @.str, i64 0, i64 %52
  %54 = load i8, ptr %53, align 1, !tbaa !16
  %55 = load ptr, ptr %4, align 8, !tbaa !13
  %56 = load i32, ptr %7, align 4, !tbaa !17
  %57 = zext i32 %56 to i64
  %58 = getelementptr inbounds nuw i8, ptr %55, i64 %57
  store i8 %54, ptr %58, align 1, !tbaa !16
  br label %59

59:                                               ; preds = %50
  %60 = load i32, ptr %7, align 4, !tbaa !17
  %61 = add i32 %60, -1
  store i32 %61, ptr %7, align 4, !tbaa !17
  %62 = load i64, ptr %6, align 8, !tbaa !23
  %63 = ashr i64 %62, 4
  store i64 %63, ptr %6, align 8, !tbaa !23
  br label %47, !llvm.loop !25

64:                                               ; preds = %47
  %65 = load ptr, ptr %4, align 8, !tbaa !13
  %66 = load i32, ptr %8, align 4, !tbaa !17
  %67 = zext i32 %66 to i64
  %68 = getelementptr inbounds nuw i8, ptr %65, i64 %67
  store ptr %68, ptr %3, align 8
  store i32 1, ptr %9, align 4
  br label %69

69:                                               ; preds = %64, %14
  call void @llvm.lifetime.end.p0(i64 4, ptr %8) #10
  call void @llvm.lifetime.end.p0(i64 4, ptr %7) #10
  call void @llvm.lifetime.end.p0(i64 8, ptr %6) #10
  %70 = load ptr, ptr %3, align 8
  ret ptr %70
}

; Function Attrs: alwaysinline nounwind uwtable
define internal ptr @lj_buf_wmem(ptr noundef %0, ptr noundef %1, i32 noundef %2) #5 {
  %4 = alloca ptr, align 8
  %5 = alloca ptr, align 8
  %6 = alloca i32, align 4
  store ptr %0, ptr %4, align 8, !tbaa !13
  store ptr %1, ptr %5, align 8, !tbaa !22
  store i32 %2, ptr %6, align 4, !tbaa !17
  %7 = load ptr, ptr %4, align 8, !tbaa !13
  %8 = load ptr, ptr %5, align 8, !tbaa !22
  %9 = load i32, ptr %6, align 4, !tbaa !17
  %10 = zext i32 %9 to i64
  call void @llvm.memcpy.p0.p0.i64(ptr align 1 %7, ptr align 1 %8, i64 %10, i1 false)
  %11 = load i32, ptr %6, align 4, !tbaa !17
  %12 = zext i32 %11 to i64
  %13 = getelementptr inbounds nuw i8, ptr %7, i64 %12
  ret ptr %13
}

; Function Attrs: nounwind uwtable
define hidden ptr @lj_strfmt_number(ptr noundef %0, ptr noundef %1) #0 {
  %3 = alloca ptr, align 8
  %4 = alloca ptr, align 8
  store ptr %0, ptr %3, align 8, !tbaa !27
  store ptr %1, ptr %4, align 8, !tbaa !29
  %5 = load ptr, ptr %3, align 8, !tbaa !27
  %6 = load ptr, ptr %4, align 8, !tbaa !29
  %7 = call ptr @lj_strfmt_num(ptr noundef %5, ptr noundef %6)
  ret ptr %7
}

; Function Attrs: nounwind uwtable
define hidden ptr @lj_strfmt_obj(ptr noundef %0, ptr noundef %1) #0 {
  %3 = alloca ptr, align 8
  %4 = alloca ptr, align 8
  %5 = alloca ptr, align 8
  %6 = alloca [28 x i8], align 16
  %7 = alloca ptr, align 8
  store ptr %0, ptr %4, align 8, !tbaa !27
  store ptr %1, ptr %5, align 8, !tbaa !29
  %8 = load ptr, ptr %5, align 8, !tbaa !29
  %9 = load i64, ptr %8, align 8, !tbaa !16
  %10 = ashr i64 %9, 47
  %11 = trunc i64 %10 to i32
  %12 = icmp eq i32 %11, -5
  br i1 %12, label %13, label %19

13:                                               ; preds = %2
  %14 = load ptr, ptr %5, align 8, !tbaa !29
  %15 = getelementptr inbounds nuw %struct.GCRef, ptr %14, i32 0, i32 0
  %16 = load i64, ptr %15, align 8, !tbaa !16
  %17 = and i64 %16, 140737488355327
  %18 = inttoptr i64 %17 to ptr
  store ptr %18, ptr %3, align 8
  br label %145

19:                                               ; preds = %2
  %20 = load ptr, ptr %5, align 8, !tbaa !29
  %21 = load i64, ptr %20, align 8, !tbaa !16
  %22 = ashr i64 %21, 47
  %23 = trunc i64 %22 to i32
  %24 = icmp ule i32 %23, -14
  br i1 %24, label %25, label %29

25:                                               ; preds = %19
  %26 = load ptr, ptr %4, align 8, !tbaa !27
  %27 = load ptr, ptr %5, align 8, !tbaa !29
  %28 = call ptr @lj_strfmt_number(ptr noundef %26, ptr noundef %27)
  store ptr %28, ptr %3, align 8
  br label %145

29:                                               ; preds = %19
  %30 = load ptr, ptr %5, align 8, !tbaa !29
  %31 = load i64, ptr %30, align 8, !tbaa !16
  %32 = icmp eq i64 %31, -1
  br i1 %32, label %33, label %36

33:                                               ; preds = %29
  %34 = load ptr, ptr %4, align 8, !tbaa !27
  %35 = call ptr @lj_str_new(ptr noundef %34, ptr noundef @.str.2, i64 noundef 3)
  store ptr %35, ptr %3, align 8
  br label %145

36:                                               ; preds = %29
  %37 = load ptr, ptr %5, align 8, !tbaa !29
  %38 = load i64, ptr %37, align 8, !tbaa !16
  %39 = ashr i64 %38, 47
  %40 = trunc i64 %39 to i32
  %41 = icmp eq i32 %40, -2
  br i1 %41, label %42, label %45

42:                                               ; preds = %36
  %43 = load ptr, ptr %4, align 8, !tbaa !27
  %44 = call ptr @lj_str_new(ptr noundef %43, ptr noundef @.str.3, i64 noundef 5)
  store ptr %44, ptr %3, align 8
  br label %145

45:                                               ; preds = %36
  %46 = load ptr, ptr %5, align 8, !tbaa !29
  %47 = load i64, ptr %46, align 8, !tbaa !16
  %48 = ashr i64 %47, 47
  %49 = trunc i64 %48 to i32
  %50 = icmp eq i32 %49, -3
  br i1 %50, label %51, label %54

51:                                               ; preds = %45
  %52 = load ptr, ptr %4, align 8, !tbaa !27
  %53 = call ptr @lj_str_new(ptr noundef %52, ptr noundef @.str.4, i64 noundef 4)
  store ptr %53, ptr %3, align 8
  br label %145

54:                                               ; preds = %45
  call void @llvm.lifetime.start.p0(i64 28, ptr %6) #10
  call void @llvm.lifetime.start.p0(i64 8, ptr %7) #10
  %55 = getelementptr inbounds [28 x i8], ptr %6, i64 0, i64 0
  store ptr %55, ptr %7, align 8, !tbaa !13
  %56 = load ptr, ptr %7, align 8, !tbaa !13
  %57 = load ptr, ptr %5, align 8, !tbaa !29
  %58 = load i64, ptr %57, align 8, !tbaa !16
  %59 = ashr i64 %58, 47
  %60 = trunc i64 %59 to i32
  %61 = icmp ule i32 %60, -14
  br i1 %61, label %62, label %63

62:                                               ; preds = %54
  br label %69

63:                                               ; preds = %54
  %64 = load ptr, ptr %5, align 8, !tbaa !29
  %65 = load i64, ptr %64, align 8, !tbaa !16
  %66 = ashr i64 %65, 47
  %67 = trunc i64 %66 to i32
  %68 = xor i32 %67, -1
  br label %69

69:                                               ; preds = %63, %62
  %70 = phi i32 [ 13, %62 ], [ %68, %63 ]
  %71 = zext i32 %70 to i64
  %72 = getelementptr inbounds nuw [14 x ptr], ptr @lj_obj_itypename, i64 0, i64 %71
  %73 = load ptr, ptr %72, align 8, !tbaa !13
  %74 = load ptr, ptr %5, align 8, !tbaa !29
  %75 = load i64, ptr %74, align 8, !tbaa !16
  %76 = ashr i64 %75, 47
  %77 = trunc i64 %76 to i32
  %78 = icmp ule i32 %77, -14
  br i1 %78, label %79, label %80

79:                                               ; preds = %69
  br label %86

80:                                               ; preds = %69
  %81 = load ptr, ptr %5, align 8, !tbaa !29
  %82 = load i64, ptr %81, align 8, !tbaa !16
  %83 = ashr i64 %82, 47
  %84 = trunc i64 %83 to i32
  %85 = xor i32 %84, -1
  br label %86

86:                                               ; preds = %80, %79
  %87 = phi i32 [ 13, %79 ], [ %85, %80 ]
  %88 = zext i32 %87 to i64
  %89 = getelementptr inbounds nuw [14 x ptr], ptr @lj_obj_itypename, i64 0, i64 %88
  %90 = load ptr, ptr %89, align 8, !tbaa !13
  %91 = call i64 @strlen(ptr noundef %90) #12
  %92 = trunc i64 %91 to i32
  %93 = call ptr @lj_buf_wmem(ptr noundef %56, ptr noundef %73, i32 noundef %92)
  store ptr %93, ptr %7, align 8, !tbaa !13
  %94 = load ptr, ptr %7, align 8, !tbaa !13
  %95 = getelementptr inbounds nuw i8, ptr %94, i32 1
  store ptr %95, ptr %7, align 8, !tbaa !13
  store i8 58, ptr %94, align 1, !tbaa !16
  %96 = load ptr, ptr %7, align 8, !tbaa !13
  %97 = getelementptr inbounds nuw i8, ptr %96, i32 1
  store ptr %97, ptr %7, align 8, !tbaa !13
  store i8 32, ptr %96, align 1, !tbaa !16
  %98 = load ptr, ptr %5, align 8, !tbaa !29
  %99 = load i64, ptr %98, align 8, !tbaa !16
  %100 = ashr i64 %99, 47
  %101 = trunc i64 %100 to i32
  %102 = icmp eq i32 %101, -9
  br i1 %102, label %103, label %126

103:                                              ; preds = %86
  %104 = load ptr, ptr %5, align 8, !tbaa !29
  %105 = getelementptr inbounds nuw %struct.GCRef, ptr %104, i32 0, i32 0
  %106 = load i64, ptr %105, align 8, !tbaa !16
  %107 = and i64 %106, 140737488355327
  %108 = inttoptr i64 %107 to ptr
  %109 = getelementptr inbounds nuw %struct.GCfuncC, ptr %108, i32 0, i32 3
  %110 = load i8, ptr %109, align 2, !tbaa !16
  %111 = zext i8 %110 to i32
  %112 = icmp sgt i32 %111, 1
  br i1 %112, label %113, label %126

113:                                              ; preds = %103
  %114 = load ptr, ptr %7, align 8, !tbaa !13
  %115 = call ptr @lj_buf_wmem(ptr noundef %114, ptr noundef @.str.5, i32 noundef 8)
  store ptr %115, ptr %7, align 8, !tbaa !13
  %116 = load ptr, ptr %7, align 8, !tbaa !13
  %117 = load ptr, ptr %5, align 8, !tbaa !29
  %118 = getelementptr inbounds nuw %struct.GCRef, ptr %117, i32 0, i32 0
  %119 = load i64, ptr %118, align 8, !tbaa !16
  %120 = and i64 %119, 140737488355327
  %121 = inttoptr i64 %120 to ptr
  %122 = getelementptr inbounds nuw %struct.GCfuncC, ptr %121, i32 0, i32 3
  %123 = load i8, ptr %122, align 2, !tbaa !16
  %124 = zext i8 %123 to i32
  %125 = call ptr @lj_strfmt_wint(ptr noundef %116, i32 noundef %124)
  store ptr %125, ptr %7, align 8, !tbaa !13
  br label %136

126:                                              ; preds = %103, %86
  %127 = load ptr, ptr %7, align 8, !tbaa !13
  %128 = load ptr, ptr %4, align 8, !tbaa !27
  %129 = getelementptr inbounds nuw %struct.lua_State, ptr %128, i32 0, i32 5
  %130 = getelementptr inbounds nuw %struct.MRef, ptr %129, i32 0, i32 0
  %131 = load i64, ptr %130, align 8, !tbaa !45
  %132 = inttoptr i64 %131 to ptr
  %133 = load ptr, ptr %5, align 8, !tbaa !29
  %134 = call ptr @lj_obj_ptr(ptr noundef %132, ptr noundef %133)
  %135 = call ptr @lj_strfmt_wptr(ptr noundef %127, ptr noundef %134)
  store ptr %135, ptr %7, align 8, !tbaa !13
  br label %136

136:                                              ; preds = %126, %113
  %137 = load ptr, ptr %4, align 8, !tbaa !27
  %138 = getelementptr inbounds [28 x i8], ptr %6, i64 0, i64 0
  %139 = load ptr, ptr %7, align 8, !tbaa !13
  %140 = getelementptr inbounds [28 x i8], ptr %6, i64 0, i64 0
  %141 = ptrtoint ptr %139 to i64
  %142 = ptrtoint ptr %140 to i64
  %143 = sub i64 %141, %142
  %144 = call ptr @lj_str_new(ptr noundef %137, ptr noundef %138, i64 noundef %143)
  store ptr %144, ptr %3, align 8
  call void @llvm.lifetime.end.p0(i64 8, ptr %7) #10
  call void @llvm.lifetime.end.p0(i64 28, ptr %6) #10
  br label %145

145:                                              ; preds = %136, %51, %42, %33, %25, %13
  %146 = load ptr, ptr %3, align 8
  ret ptr %146
}