; Function Attrs: nounwind uwtable
define hidden ptr @lj_strfmt_obj(ptr noundef %0, ptr noundef %1) local_unnamed_addr #5 {
  %3 = alloca [28 x i8], align 16
  %4 = load i64, ptr %1, align 8, !tbaa !13
  %5 = ashr i64 %4, 47
  %6 = icmp eq i64 %5, -5
  br i1 %6, label %7, label %10

7:                                                ; preds = %2
  %8 = and i64 %4, 140737488355327
  %9 = inttoptr i64 %8 to ptr
  br label %79

10:                                               ; preds = %2
  %11 = icmp ult i64 %5, -13
  br i1 %11, label %12, label %14

12:                                               ; preds = %10
  %13 = tail call ptr @lj_strfmt_num(ptr noundef %0, ptr noundef nonnull %1) #13
  br label %79

14:                                               ; preds = %10
  %15 = icmp eq i64 %4, -1
  br i1 %15, label %16, label %18

16:                                               ; preds = %14
  %17 = tail call ptr @lj_str_new(ptr noundef %0, ptr noundef nonnull @.str.2, i64 noundef 3) #13
  br label %79

18:                                               ; preds = %14
  switch i64 %5, label %23 [
    i64 -2, label %19
    i64 -3, label %21
  ]

19:                                               ; preds = %18
  %20 = tail call ptr @lj_str_new(ptr noundef %0, ptr noundef nonnull @.str.3, i64 noundef 5) #13
  br label %79

21:                                               ; preds = %18
  %22 = tail call ptr @lj_str_new(ptr noundef %0, ptr noundef nonnull @.str.4, i64 noundef 4) #13
  br label %79

23:                                               ; preds = %18
  call void @llvm.lifetime.start.p0(i64 28, ptr nonnull %3) #13
  %24 = xor i64 %5, -1
  %25 = getelementptr inbounds nuw [14 x ptr], ptr @lj_obj_itypename, i64 0, i64 %24
  %26 = load ptr, ptr %25, align 8, !tbaa !53
  %27 = tail call i64 @strlen(ptr noundef nonnull dereferenceable(1) %26) #15
  %28 = and i64 %27, 4294967295
  call void @llvm.memcpy.p0.p0.i64(ptr nonnull align 16 %3, ptr nonnull align 1 %26, i64 %28, i1 false)
  %29 = getelementptr inbounds nuw i8, ptr %3, i64 %28
  %30 = getelementptr inbounds nuw i8, ptr %29, i64 1
  store i8 58, ptr %29, align 1, !tbaa !13
  %31 = getelementptr inbounds nuw i8, ptr %29, i64 2
  store i8 32, ptr %30, align 1, !tbaa !13
  %.mask = and i64 %4, -140737488355328
  %32 = icmp eq i64 %.mask, -1266637395197952
  br i1 %32, label %33, label %43

33:                                               ; preds = %23
  %34 = and i64 %4, 140737488355327
  %35 = inttoptr i64 %34 to ptr
  %36 = getelementptr inbounds nuw i8, ptr %35, i64 10
  %37 = load i8, ptr %36, align 2, !tbaa !13
  %38 = icmp ugt i8 %37, 1
  br i1 %38, label %39, label %43

39:                                               ; preds = %33
  store i64 2553093987521623394, ptr %31, align 1
  %40 = getelementptr inbounds nuw i8, ptr %29, i64 10
  %41 = zext i8 %37 to i32
  %42 = call ptr @lj_strfmt_wint(ptr noundef nonnull %40, i32 noundef %41)
  br label %lj_strfmt_wptr.exit

43:                                               ; preds = %33, %23
  %44 = getelementptr inbounds nuw i8, ptr %0, i64 16
  %45 = load i64, ptr %44, align 8, !tbaa !28
  %46 = inttoptr i64 %45 to ptr
  %47 = tail call ptr @lj_obj_ptr(ptr noundef %46, ptr noundef nonnull %1) #13
  %48 = ptrtoint ptr %47 to i64
  %49 = icmp eq ptr %47, null
  br i1 %49, label %50, label %55

50:                                               ; preds = %43
  %51 = getelementptr inbounds nuw i8, ptr %29, i64 3
  store i8 78, ptr %31, align 1, !tbaa !13
  %52 = getelementptr inbounds nuw i8, ptr %29, i64 4
  store i8 85, ptr %51, align 1, !tbaa !13
  %53 = getelementptr inbounds nuw i8, ptr %29, i64 5
  store i8 76, ptr %52, align 1, !tbaa !13
  %54 = getelementptr inbounds nuw i8, ptr %29, i64 6
  store i8 76, ptr %53, align 1, !tbaa !13
  br label %lj_strfmt_wptr.exit

55:                                               ; preds = %43
  %.not.i = icmp ult ptr %47, inttoptr (i64 4294967296 to ptr)
  br i1 %.not.i, label %.lr.ph.preheader.i, label %56

56:                                               ; preds = %55
  %57 = lshr i64 %48, 32
  %58 = trunc nuw i64 %57 to i32
  %59 = tail call range(i32 0, 33) i32 @llvm.ctlz.i32(i32 %58, i1 true)
  %60 = lshr i32 %59, 2
  %61 = and i32 %60, 6
  %62 = xor i32 %61, 6
  %63 = add nuw nsw i32 %62, 12
  br label %.lr.ph.preheader.i

.lr.ph.preheader.i:                               ; preds = %56, %55
  %64 = phi i32 [ %63, %56 ], [ 10, %55 ]
  store i8 48, ptr %31, align 1, !tbaa !13
  %65 = getelementptr inbounds nuw i8, ptr %29, i64 3
  store i8 120, ptr %65, align 1, !tbaa !13
  %.024.i = add nsw i32 %64, -1
  %66 = zext nneg i32 %.024.i to i64
  br label %.lr.ph.i

.lr.ph.i:                                         ; preds = %.lr.ph.i, %.lr.ph.preheader.i
  %indvars.iv.i = phi i64 [ %66, %.lr.ph.preheader.i ], [ %indvars.iv.next.i, %.lr.ph.i ]
  %.02025.i = phi i64 [ %48, %.lr.ph.preheader.i ], [ %71, %.lr.ph.i ]
  %67 = and i64 %.02025.i, 15
  %68 = getelementptr inbounds nuw [17 x i8], ptr @.str, i64 0, i64 %67
  %69 = load i8, ptr %68, align 1, !tbaa !13
  %70 = getelementptr inbounds nuw i8, ptr %31, i64 %indvars.iv.i
  store i8 %69, ptr %70, align 1, !tbaa !13
  %71 = ashr i64 %.02025.i, 4
  %indvars.iv.next.i = add nsw i64 %indvars.iv.i, -1
  %72 = and i64 %indvars.iv.next.i, 4294967294
  %.not28.i = icmp eq i64 %72, 0
  br i1 %.not28.i, label %._crit_edge.i, label %.lr.ph.i, !llvm.loop !19

._crit_edge.i:                                    ; preds = %.lr.ph.i
  %73 = zext nneg i32 %64 to i64
  %74 = getelementptr inbounds nuw i8, ptr %31, i64 %73
  br label %lj_strfmt_wptr.exit

lj_strfmt_wptr.exit:                              ; preds = %._crit_edge.i, %50, %39
  %.0 = phi ptr [ %42, %39 ], [ %54, %50 ], [ %74, %._crit_edge.i ]
  %75 = ptrtoint ptr %.0 to i64
  %76 = ptrtoint ptr %3 to i64
  %77 = sub i64 %75, %76
  %78 = call ptr @lj_str_new(ptr noundef %0, ptr noundef nonnull %3, i64 noundef %77) #13
  call void @llvm.lifetime.end.p0(i64 28, ptr nonnull %3) #13
  br label %79

79:                                               ; preds = %lj_strfmt_wptr.exit, %21, %19, %16, %12, %7
  %.029 = phi ptr [ %9, %7 ], [ %13, %12 ], [ %17, %16 ], [ %20, %19 ], [ %22, %21 ], [ %78, %lj_strfmt_wptr.exit ]
  ret ptr %.029
}